target datalayout = "e-m:e-p270:32:32-p271:32:32-p272:64:64-i64:64-i128:128-f80:128-n8:16:32:64-S128"
target triple = "x86_64-pc-linux-gnu"

%struct.b2HashSet = type { ptr, i32, i32 }
%struct.b2IntArray = type { ptr, i32, i32 }
%struct.b2DynamicTree = type { ptr, i32, i32, i32, i32, i32, ptr, ptr, ptr, ptr, i32 }
%struct.b2BroadPhase = type { [3 x %struct.b2DynamicTree], i32, %struct.b2HashSet, %struct.b2IntArray, ptr, ptr, i32, %struct.b2AtomicInt, %struct.b2HashSet }
%struct.b2AtomicInt = type { i32 }
%struct.b2AABB = type { %struct.b2Vec2, %struct.b2Vec2 }
%struct.b2Vec2 = type { float, float }

; Function Attrs: inlinehint nounwind uwtable
define internal void @b2IntArray_Push(ptr noundef %0, i32 noundef %1) #4 {
  %3 = alloca ptr, align 8
  %4 = alloca i32, align 4
  %5 = alloca i32, align 4
  store ptr %0, ptr %3, align 8, !tbaa !94
  store i32 %1, ptr %4, align 4, !tbaa !20
  %6 = load ptr, ptr %3, align 8, !tbaa !94
  %7 = getelementptr inbounds nuw %struct.b2IntArray, ptr %6, i32 0, i32 1
  %8 = load i32, ptr %7, align 8, !tbaa !122
  %9 = load ptr, ptr %3, align 8, !tbaa !94
  %10 = getelementptr inbounds nuw %struct.b2IntArray, ptr %9, i32 0, i32 2
  %11 = load i32, ptr %10, align 4, !tbaa !128
  %12 = icmp eq i32 %8, %11
  br i1 %12, label %13, label %32

13:                                               ; preds = %2
  call void @llvm.lifetime.start.p0(i64 4, ptr %5) #8
  %14 = load ptr, ptr %3, align 8, !tbaa !94
  %15 = getelementptr inbounds nuw %struct.b2IntArray, ptr %14, i32 0, i32 2
  %16 = load i32, ptr %15, align 4, !tbaa !128
  %17 = icmp slt i32 %16, 2
  br i1 %17, label %18, label %19

18:                                               ; preds = %13
  br label %28

19:                                               ; preds = %13
  %20 = load ptr, ptr %3, align 8, !tbaa !94
  %21 = getelementptr inbounds nuw %struct.b2IntArray, ptr %20, i32 0, i32 2
  %22 = load i32, ptr %21, align 4, !tbaa !128
  %23 = load ptr, ptr %3, align 8, !tbaa !94
  %24 = getelementptr inbounds nuw %struct.b2IntArray, ptr %23, i32 0, i32 2
  %25 = load i32, ptr %24, align 4, !tbaa !128
  %26 = ashr i32 %25, 1
  %27 = add nsw i32 %22, %26
  br label %28

28:                                               ; preds = %19, %18
  %29 = phi i32 [ 2, %18 ], [ %27, %19 ]
  store i32 %29, ptr %5, align 4, !tbaa !20
  %30 = load ptr, ptr %3, align 8, !tbaa !94
  %31 = load i32, ptr %5, align 4, !tbaa !20
  call void @b2IntArray_Reserve(ptr noundef %30, i32 noundef %31)
  call void @llvm.lifetime.end.p0(i64 4, ptr %5) #8
  br label %32

32:                                               ; preds = %28, %2
  %33 = load i32, ptr %4, align 4, !tbaa !20
  %34 = load ptr, ptr %3, align 8, !tbaa !94
  %35 = getelementptr inbounds nuw %struct.b2IntArray, ptr %34, i32 0, i32 0
  %36 = load ptr, ptr %35, align 8, !tbaa !129
  %37 = load ptr, ptr %3, align 8, !tbaa !94
  %38 = getelementptr inbounds nuw %struct.b2IntArray, ptr %37, i32 0, i32 1
  %39 = load i32, ptr %38, align 8, !tbaa !122
  %40 = sext i32 %39 to i64
  %41 = getelementptr inbounds i32, ptr %36, i64 %40
  store i32 %33, ptr %41, align 4, !tbaa !20
  %42 = load ptr, ptr %3, align 8, !tbaa !94
  %43 = getelementptr inbounds nuw %struct.b2IntArray, ptr %42, i32 0, i32 1
  %44 = load i32, ptr %43, align 8, !tbaa !122
  %45 = add nsw i32 %44, 1
  store i32 %45, ptr %43, align 8, !tbaa !122
  ret void
}

; Function Attrs: inlinehint nounwind uwtable
define internal void @b2BufferMove(ptr noundef %0, i32 noundef %1) #4 {
  %3 = alloca ptr, align 8
  %4 = alloca i32, align 4
  %5 = alloca i8, align 1
  store ptr %0, ptr %3, align 8, !tbaa !3
  store i32 %1, ptr %4, align 4, !tbaa !20
  call void @llvm.lifetime.start.p0(i64 1, ptr %5) #8
  %6 = load ptr, ptr %3, align 8, !tbaa !3
  %7 = getelementptr inbounds nuw %struct.b2BroadPhase, ptr %6, i32 0, i32 2
  %8 = load i32, ptr %4, align 4, !tbaa !20
  %9 = add nsw i32 %8, 1
  %10 = sext i32 %9 to i64
  %11 = call zeroext i1 @b2AddKey(ptr noundef %7, i64 noundef %10)
  %12 = zext i1 %11 to i8
  store i8 %12, ptr %5, align 1, !tbaa !40
  %13 = load i8, ptr %5, align 1, !tbaa !40, !range !42, !noundef !43
  %14 = trunc i8 %13 to i1
  %15 = zext i1 %14 to i32
  %16 = icmp eq i32 %15, 0
  br i1 %16, label %17, label %21

17:                                               ; preds = %2
  %18 = load ptr, ptr %3, align 8, !tbaa !3
  %19 = getelementptr inbounds nuw %struct.b2BroadPhase, ptr %18, i32 0, i32 3
  %20 = load i32, ptr %4, align 4, !tbaa !20
  call void @b2IntArray_Push(ptr noundef %19, i32 noundef %20)
  br label %21

21:                                               ; preds = %17, %2
  call void @llvm.lifetime.end.p0(i64 1, ptr %5) #8
  ret void
}

; Function Attrs: nounwind uwtable
define hidden void @b2BroadPhase_EnlargeProxy(ptr noundef %0, i32 noundef %1, <2 x float> %2, <2 x float> %3) #6 {
  %5 = alloca %struct.b2AABB, align 4
  %6 = alloca ptr, align 8
  %7 = alloca i32, align 4
  %8 = alloca i32, align 4
  %9 = alloca i32, align 4
  %10 = getelementptr inbounds nuw { <2 x float>, <2 x float> }, ptr %5, i32 0, i32 0
  store <2 x float> %2, ptr %10, align 4
  %11 = getelementptr inbounds nuw { <2 x float>, <2 x float> }, ptr %5, i32 0, i32 1
  store <2 x float> %3, ptr %11, align 4
  store ptr %0, ptr %6, align 8, !tbaa !3
  store i32 %1, ptr %7, align 4, !tbaa !20
  call void @llvm.lifetime.start.p0(i64 4, ptr %8) #8
  %12 = load i32, ptr %7, align 4, !tbaa !20
  %13 = and i32 %12, 3
  store i32 %13, ptr %8, align 4, !tbaa !20
  call void @llvm.lifetime.start.p0(i64 4, ptr %9) #8
  %14 = load i32, ptr %7, align 4, !tbaa !20
  %15 = ashr i32 %14, 2
  store i32 %15, ptr %9, align 4, !tbaa !20
  %16 = load ptr, ptr %6, align 8, !tbaa !3
  %17 = getelementptr inbounds nuw %struct.b2BroadPhase, ptr %16, i32 0, i32 0
  %18 = getelementptr inbounds [3 x %struct.b2DynamicTree], ptr %17, i64 0, i64 0
  %19 = load i32, ptr %8, align 4, !tbaa !20
  %20 = sext i32 %19 to i64
  %21 = getelementptr inbounds %struct.b2DynamicTree, ptr %18, i64 %20
  %22 = load i32, ptr %9, align 4, !tbaa !20
  %23 = getelementptr inbounds nuw { <2 x float>, <2 x float> }, ptr %5, i32 0, i32 0
  %24 = load <2 x float>, ptr %23, align 4
  %25 = getelementptr inbounds nuw { <2 x float>, <2 x float> }, ptr %5, i32 0, i32 1
  %26 = load <2 x float>, ptr %25, align 4
  call void @b2DynamicTree_EnlargeProxy(ptr noundef %21, i32 noundef %22, <2 x float> %24, <2 x float> %26)
  %27 = load ptr, ptr %6, align 8, !tbaa !3
  %28 = load i32, ptr %7, align 4, !tbaa !20
  call void @b2BufferMove(ptr noundef %27, i32 noundef %28)
  call void @llvm.lifetime.end.p0(i64 4, ptr %9) #8
  call void @llvm.lifetime.end.p0(i64 4, ptr %8) #8
  ret void
}