; Function Attrs: nounwind uwtable
define hidden void @b2BroadPhase_EnlargeProxy(ptr noundef %0, i32 noundef %1, <2 x float> %2, <2 x float> %3) local_unnamed_addr #5 {
  %5 = and i32 %1, 3
  %6 = ashr i32 %1, 2
  %7 = zext nneg i32 %5 to i64
  %8 = getelementptr inbounds nuw %struct.b2DynamicTree, ptr %0, i64 %7
  tail call void @b2DynamicTree_EnlargeProxy(ptr noundef %8, i32 noundef %6, <2 x float> %2, <2 x float> %3) #8
  %9 = getelementptr inbounds nuw i8, ptr %0, i64 224
  %10 = add nsw i32 %1, 1
  %11 = sext i32 %10 to i64
  %12 = tail call zeroext i1 @b2AddKey(ptr noundef nonnull %9, i64 noundef %11) #8
  br i1 %12, label %b2BufferMove.exit, label %13

13:                                               ; preds = %4
  %14 = getelementptr inbounds nuw i8, ptr %0, i64 240
  %15 = getelementptr inbounds nuw i8, ptr %0, i64 248
  %16 = load i32, ptr %15, align 8, !tbaa !29
  %17 = getelementptr inbounds nuw i8, ptr %0, i64 252
  %18 = load i32, ptr %17, align 4, !tbaa !30
  %19 = icmp eq i32 %16, %18
  br i1 %19, label %20, label %b2IntArray_Push.exit.i

20:                                               ; preds = %13
  %21 = icmp slt i32 %16, 2
  %22 = lshr i32 %16, 1
  %23 = add nuw nsw i32 %22, %16
  %24 = select i1 %21, i32 2, i32 %23
  tail call void @b2IntArray_Reserve(ptr noundef nonnull %14, i32 noundef %24) #8
  %.pre.i.i = load i32, ptr %15, align 8, !tbaa !29
  br label %b2IntArray_Push.exit.i

b2IntArray_Push.exit.i:                           ; preds = %20, %13
  %25 = phi i32 [ %.pre.i.i, %20 ], [ %16, %13 ]
  %26 = load ptr, ptr %14, align 8, !tbaa !31
  %27 = sext i32 %25 to i64
  %28 = getelementptr inbounds i32, ptr %26, i64 %27
  store i32 %1, ptr %28, align 4, !tbaa !21
  %29 = load i32, ptr %15, align 8, !tbaa !29
  %30 = add nsw i32 %29, 1
  store i32 %30, ptr %15, align 8, !tbaa !29
  br label %b2BufferMove.exit

b2BufferMove.exit:                                ; preds = %4, %b2IntArray_Push.exit.i
  ret void
}